target datalayout = "e-m:e-p270:32:32-p271:32:32-p272:64:64-i64:64-i128:128-f80:128-n8:16:32:64-S128"
target triple = "x86_64-pc-linux-gnu"

%"struct.duckdb_brotli::BrotliDecoderStateStruct" = type { i32, i32, %"struct.duckdb_brotli::BrotliBitReader", ptr, ptr, ptr, %union.anon, i64, i32, i32, i32, i32, i32, i32, [4 x i32], i32, i32, ptr, ptr, ptr, ptr, ptr, ptr, %"struct.duckdb_brotli::HuffmanTreeGroup", %"struct.duckdb_brotli::HuffmanTreeGroup", %"struct.duckdb_brotli::HuffmanTreeGroup", ptr, ptr, i32, i32, [3 x i64], i64, [3 x i64], [6 x i64], i64, i64, i64, ptr, ptr, i64, i64, i64, [65 x i32], i32, i32, i8, ptr, ptr, ptr, i64, i32, i32, i32, i32, i32, i32, i64, ptr, ptr, ptr, ptr, [8 x i32], %union.anon.0 }
%"struct.duckdb_brotli::BrotliBitReader" = type { i64, i64, ptr, ptr, ptr }
%union.anon = type { i64 }
%"struct.duckdb_brotli::HuffmanTreeGroup" = type { ptr, ptr, i16, i16, i16 }
%union.anon.0 = type { %"struct.duckdb_brotli::BrotliMetablockBodyArena" }
%"struct.duckdb_brotli::BrotliMetablockBodyArena" = type { [544 x i8], [544 x i64] }

; Function Attrs: mustprogress uwtable
define noundef i32 @_ZN13duckdb_brotli22BrotliDecoderStateInitEPNS_24BrotliDecoderStateStructEPFPvS2_mEPFvS2_S2_ES2_(ptr noundef %0, ptr noundef %1, ptr noundef %2, ptr noundef %3) #0 {
  %5 = alloca i32, align 4
  %6 = alloca ptr, align 8
  %7 = alloca ptr, align 8
  %8 = alloca ptr, align 8
  %9 = alloca ptr, align 8
  store ptr %0, ptr %6, align 8, !tbaa !3
  store ptr %1, ptr %7, align 8, !tbaa !8
  store ptr %2, ptr %8, align 8, !tbaa !8
  store ptr %3, ptr %9, align 8, !tbaa !8
  %10 = load ptr, ptr %7, align 8, !tbaa !8
  %11 = icmp ne ptr %10, null
  br i1 %11, label %19, label %12

12:                                               ; preds = %4
  %13 = load ptr, ptr %6, align 8, !tbaa !3
  %14 = getelementptr inbounds nuw %"struct.duckdb_brotli::BrotliDecoderStateStruct", ptr %13, i32 0, i32 3
  store ptr @_ZN13duckdb_brotli22BrotliDefaultAllocFuncEPvm, ptr %14, align 8, !tbaa !9
  %15 = load ptr, ptr %6, align 8, !tbaa !3
  %16 = getelementptr inbounds nuw %"struct.duckdb_brotli::BrotliDecoderStateStruct", ptr %15, i32 0, i32 4
  store ptr @_ZN13duckdb_brotli21BrotliDefaultFreeFuncEPvS0_, ptr %16, align 8, !tbaa !24
  %17 = load ptr, ptr %6, align 8, !tbaa !3
  %18 = getelementptr inbounds nuw %"struct.duckdb_brotli::BrotliDecoderStateStruct", ptr %17, i32 0, i32 5
  store ptr null, ptr %18, align 8, !tbaa !25
  br label %29

19:                                               ; preds = %4
  %20 = load ptr, ptr %7, align 8, !tbaa !8
  %21 = load ptr, ptr %6, align 8, !tbaa !3
  %22 = getelementptr inbounds nuw %"struct.duckdb_brotli::BrotliDecoderStateStruct", ptr %21, i32 0, i32 3
  store ptr %20, ptr %22, align 8, !tbaa !9
  %23 = load ptr, ptr %8, align 8, !tbaa !8
  %24 = load ptr, ptr %6, align 8, !tbaa !3
  %25 = getelementptr inbounds nuw %"struct.duckdb_brotli::BrotliDecoderStateStruct", ptr %24, i32 0, i32 4
  store ptr %23, ptr %25, align 8, !tbaa !24
  %26 = load ptr, ptr %9, align 8, !tbaa !8
  %27 = load ptr, ptr %6, align 8, !tbaa !3
  %28 = getelementptr inbounds nuw %"struct.duckdb_brotli::BrotliDecoderStateStruct", ptr %27, i32 0, i32 5
  store ptr %26, ptr %28, align 8, !tbaa !25
  br label %29

29:                                               ; preds = %19, %12
  %30 = load ptr, ptr %6, align 8, !tbaa !3
  %31 = getelementptr inbounds nuw %"struct.duckdb_brotli::BrotliDecoderStateStruct", ptr %30, i32 0, i32 15
  store i32 0, ptr %31, align 8, !tbaa !26
  %32 = load ptr, ptr %6, align 8, !tbaa !3
  %33 = getelementptr inbounds nuw %"struct.duckdb_brotli::BrotliDecoderStateStruct", ptr %32, i32 0, i32 2
  call void @_ZN13duckdb_brotli19BrotliInitBitReaderEPNS_15BrotliBitReaderE(ptr noundef %33)
  %34 = load ptr, ptr %6, align 8, !tbaa !3
  %35 = getelementptr inbounds nuw %"struct.duckdb_brotli::BrotliDecoderStateStruct", ptr %34, i32 0, i32 0
  store i32 0, ptr %35, align 8, !tbaa !27
  %36 = load ptr, ptr %6, align 8, !tbaa !3
  %37 = getelementptr inbounds nuw %"struct.duckdb_brotli::BrotliDecoderStateStruct", ptr %36, i32 0, i32 55
  %38 = load i32, ptr %37, align 4
  %39 = and i32 %38, -33
  %40 = or i32 %39, 0
  store i32 %40, ptr %37, align 4
  %41 = load ptr, ptr %6, align 8, !tbaa !3
  %42 = getelementptr inbounds nuw %"struct.duckdb_brotli::BrotliDecoderStateStruct", ptr %41, i32 0, i32 50
  store i32 0, ptr %42, align 8, !tbaa !28
  %43 = load ptr, ptr %6, align 8, !tbaa !3
  %44 = getelementptr inbounds nuw %"struct.duckdb_brotli::BrotliDecoderStateStruct", ptr %43, i32 0, i32 51
  store i32 0, ptr %44, align 4, !tbaa !29
  %45 = load ptr, ptr %6, align 8, !tbaa !3
  %46 = getelementptr inbounds nuw %"struct.duckdb_brotli::BrotliDecoderStateStruct", ptr %45, i32 0, i32 52
  store i32 0, ptr %46, align 8, !tbaa !30
  %47 = load ptr, ptr %6, align 8, !tbaa !3
  %48 = getelementptr inbounds nuw %"struct.duckdb_brotli::BrotliDecoderStateStruct", ptr %47, i32 0, i32 53
  store i32 0, ptr %48, align 4, !tbaa !31
  %49 = load ptr, ptr %6, align 8, !tbaa !3
  %50 = getelementptr inbounds nuw %"struct.duckdb_brotli::BrotliDecoderStateStruct", ptr %49, i32 0, i32 7
  store i64 0, ptr %50, align 8, !tbaa !32
  %51 = load ptr, ptr %6, align 8, !tbaa !3
  %52 = getelementptr inbounds nuw %"struct.duckdb_brotli::BrotliDecoderStateStruct", ptr %51, i32 0, i32 1
  store i32 0, ptr %52, align 4, !tbaa !33
  %53 = load ptr, ptr %6, align 8, !tbaa !3
  %54 = getelementptr inbounds nuw %"struct.duckdb_brotli::BrotliDecoderStateStruct", ptr %53, i32 0, i32 8
  store i32 0, ptr %54, align 8, !tbaa !34
  %55 = load ptr, ptr %6, align 8, !tbaa !3
  %56 = getelementptr inbounds nuw %"struct.duckdb_brotli::BrotliDecoderStateStruct", ptr %55, i32 0, i32 39
  store i64 0, ptr %56, align 8, !tbaa !35
  %57 = load ptr, ptr %6, align 8, !tbaa !3
  %58 = getelementptr inbounds nuw %"struct.duckdb_brotli::BrotliDecoderStateStruct", ptr %57, i32 0, i32 40
  store i64 0, ptr %58, align 8, !tbaa !36
  %59 = load ptr, ptr %6, align 8, !tbaa !3
  %60 = getelementptr inbounds nuw %"struct.duckdb_brotli::BrotliDecoderStateStruct", ptr %59, i32 0, i32 49
  store i64 0, ptr %60, align 8, !tbaa !37
  %61 = load ptr, ptr %6, align 8, !tbaa !3
  %62 = getelementptr inbounds nuw %"struct.duckdb_brotli::BrotliDecoderStateStruct", ptr %61, i32 0, i32 26
  store ptr null, ptr %62, align 8, !tbaa !38
  %63 = load ptr, ptr %6, align 8, !tbaa !3
  %64 = getelementptr inbounds nuw %"struct.duckdb_brotli::BrotliDecoderStateStruct", ptr %63, i32 0, i32 27
  store ptr null, ptr %64, align 8, !tbaa !39
  %65 = load ptr, ptr %6, align 8, !tbaa !3
  %66 = getelementptr inbounds nuw %"struct.duckdb_brotli::BrotliDecoderStateStruct", ptr %65, i32 0, i32 17
  store ptr null, ptr %66, align 8, !tbaa !40
  %67 = load ptr, ptr %6, align 8, !tbaa !3
  %68 = getelementptr inbounds nuw %"struct.duckdb_brotli::BrotliDecoderStateStruct", ptr %67, i32 0, i32 11
  store i32 0, ptr %68, align 4, !tbaa !41
  %69 = load ptr, ptr %6, align 8, !tbaa !3
  %70 = getelementptr inbounds nuw %"struct.duckdb_brotli::BrotliDecoderStateStruct", ptr %69, i32 0, i32 54
  store i32 0, ptr %70, align 8, !tbaa !42
  %71 = load ptr, ptr %6, align 8, !tbaa !3
  %72 = getelementptr inbounds nuw %"struct.duckdb_brotli::BrotliDecoderStateStruct", ptr %71, i32 0, i32 12
  store i32 0, ptr %72, align 8, !tbaa !43
  %73 = load ptr, ptr %6, align 8, !tbaa !3
  %74 = getelementptr inbounds nuw %"struct.duckdb_brotli::BrotliDecoderStateStruct", ptr %73, i32 0, i32 57
  store ptr null, ptr %74, align 8, !tbaa !44
  %75 = load ptr, ptr %6, align 8, !tbaa !3
  %76 = getelementptr inbounds nuw %"struct.duckdb_brotli::BrotliDecoderStateStruct", ptr %75, i32 0, i32 58
  store ptr null, ptr %76, align 8, !tbaa !45
  %77 = load ptr, ptr %6, align 8, !tbaa !3
  %78 = getelementptr inbounds nuw %"struct.duckdb_brotli::BrotliDecoderStateStruct", ptr %77, i32 0, i32 37
  store ptr null, ptr %78, align 8, !tbaa !46
  %79 = load ptr, ptr %6, align 8, !tbaa !3
  %80 = getelementptr inbounds nuw %"struct.duckdb_brotli::BrotliDecoderStateStruct", ptr %79, i32 0, i32 21
  store ptr null, ptr %80, align 8, !tbaa !47
  %81 = load ptr, ptr %6, align 8, !tbaa !3
  %82 = getelementptr inbounds nuw %"struct.duckdb_brotli::BrotliDecoderStateStruct", ptr %81, i32 0, i32 22
  store ptr null, ptr %82, align 8, !tbaa !48
  %83 = load ptr, ptr %6, align 8, !tbaa !3
  %84 = getelementptr inbounds nuw %"struct.duckdb_brotli::BrotliDecoderStateStruct", ptr %83, i32 0, i32 23
  %85 = getelementptr inbounds nuw %"struct.duckdb_brotli::HuffmanTreeGroup", ptr %84, i32 0, i32 1
  store ptr null, ptr %85, align 8, !tbaa !49
  %86 = load ptr, ptr %6, align 8, !tbaa !3
  %87 = getelementptr inbounds nuw %"struct.duckdb_brotli::BrotliDecoderStateStruct", ptr %86, i32 0, i32 23
  %88 = getelementptr inbounds nuw %"struct.duckdb_brotli::HuffmanTreeGroup", ptr %87, i32 0, i32 0
  store ptr null, ptr %88, align 8, !tbaa !50
  %89 = load ptr, ptr %6, align 8, !tbaa !3
  %90 = getelementptr inbounds nuw %"struct.duckdb_brotli::BrotliDecoderStateStruct", ptr %89, i32 0, i32 24
  %91 = getelementptr inbounds nuw %"struct.duckdb_brotli::HuffmanTreeGroup", ptr %90, i32 0, i32 1
  store ptr null, ptr %91, align 8, !tbaa !51
  %92 = load ptr, ptr %6, align 8, !tbaa !3
  %93 = getelementptr inbounds nuw %"struct.duckdb_brotli::BrotliDecoderStateStruct", ptr %92, i32 0, i32 24
  %94 = getelementptr inbounds nuw %"struct.duckdb_brotli::HuffmanTreeGroup", ptr %93, i32 0, i32 0
  store ptr null, ptr %94, align 8, !tbaa !52
  %95 = load ptr, ptr %6, align 8, !tbaa !3
  %96 = getelementptr inbounds nuw %"struct.duckdb_brotli::BrotliDecoderStateStruct", ptr %95, i32 0, i32 25
  %97 = getelementptr inbounds nuw %"struct.duckdb_brotli::HuffmanTreeGroup", ptr %96, i32 0, i32 1
  store ptr null, ptr %97, align 8, !tbaa !53
  %98 = load ptr, ptr %6, align 8, !tbaa !3
  %99 = getelementptr inbounds nuw %"struct.duckdb_brotli::BrotliDecoderStateStruct", ptr %98, i32 0, i32 25
  %100 = getelementptr inbounds nuw %"struct.duckdb_brotli::HuffmanTreeGroup", ptr %99, i32 0, i32 0
  store ptr null, ptr %100, align 8, !tbaa !54
  %101 = load ptr, ptr %6, align 8, !tbaa !3
  %102 = getelementptr inbounds nuw %"struct.duckdb_brotli::BrotliDecoderStateStruct", ptr %101, i32 0, i32 55
  %103 = load i32, ptr %102, align 4
  %104 = and i32 %103, -2
  %105 = or i32 %104, 0
  store i32 %105, ptr %102, align 4
  %106 = load ptr, ptr %6, align 8, !tbaa !3
  %107 = getelementptr inbounds nuw %"struct.duckdb_brotli::BrotliDecoderStateStruct", ptr %106, i32 0, i32 55
  %108 = load i32, ptr %107, align 4
  %109 = and i32 %108, -3
  %110 = or i32 %109, 0
  store i32 %110, ptr %107, align 4
  %111 = load ptr, ptr %6, align 8, !tbaa !3
  %112 = getelementptr inbounds nuw %"struct.duckdb_brotli::BrotliDecoderStateStruct", ptr %111, i32 0, i32 55
  %113 = load i32, ptr %112, align 4
  %114 = and i32 %113, -5
  %115 = or i32 %114, 0
  store i32 %115, ptr %112, align 4
  %116 = load ptr, ptr %6, align 8, !tbaa !3
  %117 = getelementptr inbounds nuw %"struct.duckdb_brotli::BrotliDecoderStateStruct", ptr %116, i32 0, i32 55
  %118 = load i32, ptr %117, align 4
  %119 = and i32 %118, -9
  %120 = or i32 %119, 0
  store i32 %120, ptr %117, align 4
  %121 = load ptr, ptr %6, align 8, !tbaa !3
  %122 = getelementptr inbounds nuw %"struct.duckdb_brotli::BrotliDecoderStateStruct", ptr %121, i32 0, i32 55
  %123 = load i32, ptr %122, align 4
  %124 = and i32 %123, -17
  %125 = or i32 %124, 16
  store i32 %125, ptr %122, align 4
  %126 = load ptr, ptr %6, align 8, !tbaa !3
  %127 = getelementptr inbounds nuw %"struct.duckdb_brotli::BrotliDecoderStateStruct", ptr %126, i32 0, i32 55
  %128 = load i32, ptr %127, align 4
  %129 = and i32 %128, -4033
  %130 = or i32 %129, 0
  store i32 %130, ptr %127, align 4
  %131 = load ptr, ptr %6, align 8, !tbaa !3
  %132 = getelementptr inbounds nuw %"struct.duckdb_brotli::BrotliDecoderStateStruct", ptr %131, i32 0, i32 10
  store i32 0, ptr %132, align 8, !tbaa !55
  %133 = load ptr, ptr %6, align 8, !tbaa !3
  %134 = getelementptr inbounds nuw %"struct.duckdb_brotli::BrotliDecoderStateStruct", ptr %133, i32 0, i32 14
  %135 = getelementptr inbounds [4 x i32], ptr %134, i64 0, i64 0
  store i32 16, ptr %135, align 8, !tbaa !56
  %136 = load ptr, ptr %6, align 8, !tbaa !3
  %137 = getelementptr inbounds nuw %"struct.duckdb_brotli::BrotliDecoderStateStruct", ptr %136, i32 0, i32 14
  %138 = getelementptr inbounds [4 x i32], ptr %137, i64 0, i64 1
  store i32 15, ptr %138, align 4, !tbaa !56
  %139 = load ptr, ptr %6, align 8, !tbaa !3
  %140 = getelementptr inbounds nuw %"struct.duckdb_brotli::BrotliDecoderStateStruct", ptr %139, i32 0, i32 14
  %141 = getelementptr inbounds [4 x i32], ptr %140, i64 0, i64 2
  store i32 11, ptr %141, align 8, !tbaa !56
  %142 = load ptr, ptr %6, align 8, !tbaa !3
  %143 = getelementptr inbounds nuw %"struct.duckdb_brotli::BrotliDecoderStateStruct", ptr %142, i32 0, i32 14
  %144 = getelementptr inbounds [4 x i32], ptr %143, i64 0, i64 3
  store i32 4, ptr %144, align 4, !tbaa !56
  %145 = load ptr, ptr %6, align 8, !tbaa !3
  %146 = getelementptr inbounds nuw %"struct.duckdb_brotli::BrotliDecoderStateStruct", ptr %145, i32 0, i32 13
  store i32 0, ptr %146, align 4, !tbaa !57
  %147 = load ptr, ptr %6, align 8, !tbaa !3
  %148 = getelementptr inbounds nuw %"struct.duckdb_brotli::BrotliDecoderStateStruct", ptr %147, i32 0, i32 26
  store ptr null, ptr %148, align 8, !tbaa !38
  %149 = load ptr, ptr %6, align 8, !tbaa !3
  %150 = getelementptr inbounds nuw %"struct.duckdb_brotli::BrotliDecoderStateStruct", ptr %149, i32 0, i32 27
  store ptr null, ptr %150, align 8, !tbaa !39
  %151 = load ptr, ptr %6, align 8, !tbaa !3
  %152 = getelementptr inbounds nuw %"struct.duckdb_brotli::BrotliDecoderStateStruct", ptr %151, i32 0, i32 41
  store i64 63, ptr %152, align 8, !tbaa !58
  %153 = load ptr, ptr %6, align 8, !tbaa !3
  %154 = getelementptr inbounds nuw %"struct.duckdb_brotli::BrotliDecoderStateStruct", ptr %153, i32 0, i32 60
  store ptr null, ptr %154, align 8, !tbaa !59
  %155 = load ptr, ptr %7, align 8, !tbaa !8
  %156 = load ptr, ptr %8, align 8, !tbaa !8
  %157 = load ptr, ptr %9, align 8, !tbaa !8
  %158 = call noundef ptr @_ZN13duckdb_brotli36BrotliSharedDictionaryCreateInstanceEPFPvS0_mEPFvS0_S0_ES0_(ptr noundef %155, ptr noundef %156, ptr noundef %157)
  %159 = load ptr, ptr %6, align 8, !tbaa !3
  %160 = getelementptr inbounds nuw %"struct.duckdb_brotli::BrotliDecoderStateStruct", ptr %159, i32 0, i32 59
  store ptr %158, ptr %160, align 8, !tbaa !60
  %161 = load ptr, ptr %6, align 8, !tbaa !3
  %162 = getelementptr inbounds nuw %"struct.duckdb_brotli::BrotliDecoderStateStruct", ptr %161, i32 0, i32 59
  %163 = load ptr, ptr %162, align 8, !tbaa !60
  %164 = icmp ne ptr %163, null
  br i1 %164, label %166, label %165

165:                                              ; preds = %29
  store i32 0, ptr %5, align 4
  br label %173

166:                                              ; preds = %29
  %167 = load ptr, ptr %6, align 8, !tbaa !3
  %168 = getelementptr inbounds nuw %"struct.duckdb_brotli::BrotliDecoderStateStruct", ptr %167, i32 0, i32 46
  store ptr null, ptr %168, align 8, !tbaa !61
  %169 = load ptr, ptr %6, align 8, !tbaa !3
  %170 = getelementptr inbounds nuw %"struct.duckdb_brotli::BrotliDecoderStateStruct", ptr %169, i32 0, i32 47
  store ptr null, ptr %170, align 8, !tbaa !62
  %171 = load ptr, ptr %6, align 8, !tbaa !3
  %172 = getelementptr inbounds nuw %"struct.duckdb_brotli::BrotliDecoderStateStruct", ptr %171, i32 0, i32 48
  store ptr null, ptr %172, align 8, !tbaa !63
  store i32 1, ptr %5, align 4
  br label %173

173:                                              ; preds = %166, %165
  %174 = load i32, ptr %5, align 4
  ret i32 %174
}